target datalayout = "e-m:e-p270:32:32-p271:32:32-p272:64:64-i64:64-i128:128-f80:128-n8:16:32:64-S128"
target triple = "x86_64-pc-linux-gnu"

%"class.llvm::SmallVectorBase" = type { ptr, i32, i32 }
%"class.llvm::SmallPtrSetImplBase.base" = type <{ ptr, ptr, i32, i32, i32 }>
%"class.llvm::MemorySSA" = type <{ ptr, ptr, ptr, ptr, %"class.llvm::DenseMap.44", %"class.llvm::DenseMap.47", %"class.llvm::DenseMap.50", %"class.std::unique_ptr", %"class.llvm::SmallPtrSet.55", %"class.llvm::DenseMap.58", %"class.std::unique_ptr.61", %"class.std::unique_ptr.69", %"class.std::unique_ptr.77", i32, i8, [3 x i8] }>
%"class.llvm::DenseMap.44" = type <{ ptr, i32, i32, i32, [4 x i8] }>
%"class.llvm::DenseMap.47" = type <{ ptr, i32, i32, i32, [4 x i8] }>
%"class.llvm::DenseMap.50" = type <{ ptr, i32, i32, i32, [4 x i8] }>
%"class.std::unique_ptr" = type { %"struct.std::__uniq_ptr_data" }
%"struct.std::__uniq_ptr_data" = type { %"class.std::__uniq_ptr_impl" }
%"class.std::__uniq_ptr_impl" = type { %"class.std::tuple" }
%"class.std::tuple" = type { %"struct.std::_Tuple_impl" }
%"struct.std::_Tuple_impl" = type { %"struct.std::_Head_base.54" }
%"struct.std::_Head_base.54" = type { ptr }
%"class.llvm::SmallPtrSet.55" = type { %"class.llvm::SmallPtrSetImpl.base.57", [16 x ptr] }
%"class.llvm::SmallPtrSetImpl.base.57" = type { %"class.llvm::SmallPtrSetImplBase.base" }
%"class.llvm::DenseMap.58" = type <{ ptr, i32, i32, i32, [4 x i8] }>
%"class.std::unique_ptr.61" = type { %"struct.std::__uniq_ptr_data.62" }
%"struct.std::__uniq_ptr_data.62" = type { %"class.std::__uniq_ptr_impl.63" }
%"class.std::__uniq_ptr_impl.63" = type { %"class.std::tuple.64" }
%"class.std::tuple.64" = type { %"struct.std::_Tuple_impl.65" }
%"struct.std::_Tuple_impl.65" = type { %"struct.std::_Head_base.68" }
%"struct.std::_Head_base.68" = type { ptr }
%"class.std::unique_ptr.69" = type { %"struct.std::__uniq_ptr_data.70" }
%"struct.std::__uniq_ptr_data.70" = type { %"class.std::__uniq_ptr_impl.71" }
%"class.std::__uniq_ptr_impl.71" = type { %"class.std::tuple.72" }
%"class.std::tuple.72" = type { %"struct.std::_Tuple_impl.73" }
%"struct.std::_Tuple_impl.73" = type { %"struct.std::_Head_base.76" }
%"struct.std::_Head_base.76" = type { ptr }
%"class.std::unique_ptr.77" = type { %"struct.std::__uniq_ptr_data.78" }
%"struct.std::__uniq_ptr_data.78" = type { %"class.std::__uniq_ptr_impl.79" }
%"class.std::__uniq_ptr_impl.79" = type { %"class.std::tuple.80" }
%"class.std::tuple.80" = type { %"struct.std::_Tuple_impl.81" }
%"struct.std::_Tuple_impl.81" = type { %"struct.std::_Head_base.84" }
%"struct.std::_Head_base.84" = type { ptr }
%"class.llvm::MemoryAccess" = type { %"class.llvm::DerivedUser", %"class.llvm::ilist_node", %"class.llvm::ilist_node.93", ptr }
%"class.llvm::DerivedUser" = type { %"class.llvm::User", ptr }
%"class.llvm::User" = type { %"class.llvm::Value" }
%"class.llvm::Value" = type { i8, i8, i16, i32, ptr, ptr }
%"class.llvm::ilist_node" = type { %"class.llvm::ilist_node_impl" }
%"class.llvm::ilist_node_impl" = type { %"class.llvm::ilist_node_base" }
%"class.llvm::ilist_node_base" = type { %"class.llvm::ilist_detail::node_base_prevnext" }
%"class.llvm::ilist_detail::node_base_prevnext" = type { ptr, ptr }
%"class.llvm::ilist_node.93" = type { %"class.llvm::ilist_node_impl.94" }
%"class.llvm::ilist_node_impl.94" = type { %"class.llvm::ilist_node_base" }
%"class.(anonymous namespace)::ClobberWalker" = type { ptr, ptr, ptr, ptr, ptr, %"class.llvm::SmallVector.243", %"class.llvm::DenseSet" }
%"class.llvm::SmallVector.243" = type { %"class.llvm::SmallVectorImpl.244", %"struct.llvm::SmallVectorStorage.247" }
%"class.llvm::SmallVectorImpl.244" = type { %"class.llvm::SmallVectorTemplateBase.245" }
%"class.llvm::SmallVectorTemplateBase.245" = type { %"class.llvm::SmallVectorTemplateCommon.246" }
%"class.llvm::SmallVectorTemplateCommon.246" = type { %"class.llvm::SmallVectorBase" }
%"struct.llvm::SmallVectorStorage.247" = type { [2304 x i8] }
%"class.llvm::DenseSet" = type { %"class.llvm::detail::DenseSetImpl" }
%"class.llvm::detail::DenseSetImpl" = type { %"class.llvm::DenseMap.248" }
%"class.llvm::DenseMap.248" = type <{ ptr, i32, i32, i32, [4 x i8] }>
%"struct.(anonymous namespace)::ClobberWalker::TerminatedPath" = type { ptr, i32 }
%class.anon.375 = type { ptr }

; Function Attrs: mustprogress nounwind uwtable
define linkonce_odr hidden noundef nonnull align 8 dereferenceable(8) ptr @_ZNSt10_Head_baseILm0EPN4llvm12MemoryAccessELb0EE7_M_headERKS3_(ptr noundef nonnull align 8 dereferenceable(8) %0) #1 comdat align 2 {
  %2 = alloca ptr, align 8
  store ptr %0, ptr %2, align 8
  %3 = load ptr, ptr %2, align 8
  %4 = getelementptr inbounds nuw %"struct.std::_Head_base.54", ptr %3, i32 0, i32 0
  ret ptr %4
}

; Function Attrs: mustprogress nounwind uwtable
define linkonce_odr hidden noundef nonnull align 8 dereferenceable(8) ptr @_ZNSt11_Tuple_implILm0EJPN4llvm12MemoryAccessENS0_12ValueDeleterEEE7_M_headERKS4_(ptr noundef nonnull align 8 dereferenceable(8) %0) #1 comdat align 2 {
  %2 = alloca ptr, align 8
  store ptr %0, ptr %2, align 8
  %3 = load ptr, ptr %2, align 8
  %4 = call noundef nonnull align 8 dereferenceable(8) ptr @_ZNSt10_Head_baseILm0EPN4llvm12MemoryAccessELb0EE7_M_headERKS3_(ptr noundef nonnull align 8 dereferenceable(8) %3) #2
  ret ptr %4
}

; Function Attrs: mustprogress nounwind uwtable
define linkonce_odr noundef nonnull align 8 dereferenceable(8) ptr @_ZSt12__get_helperILm0EPN4llvm12MemoryAccessEJNS0_12ValueDeleterEEERKT0_RKSt11_Tuple_implIXT_EJS4_DpT1_EE(ptr noundef nonnull align 8 dereferenceable(8) %0) #1 comdat {
  %2 = alloca ptr, align 8
  store ptr %0, ptr %2, align 8
  %3 = load ptr, ptr %2, align 8
  %4 = call noundef nonnull align 8 dereferenceable(8) ptr @_ZNSt11_Tuple_implILm0EJPN4llvm12MemoryAccessENS0_12ValueDeleterEEE7_M_headERKS4_(ptr noundef nonnull align 8 dereferenceable(8) %3) #2
  ret ptr %4
}

; Function Attrs: mustprogress nounwind uwtable
define linkonce_odr noundef nonnull align 8 dereferenceable(8) ptr @_ZSt3getILm0EJPN4llvm12MemoryAccessENS0_12ValueDeleterEEERKNSt13tuple_elementIXT_ESt5tupleIJDpT0_EEE4typeERKS8_(ptr noundef nonnull align 8 dereferenceable(8) %0) #1 comdat {
  %2 = alloca ptr, align 8
  store ptr %0, ptr %2, align 8
  %3 = load ptr, ptr %2, align 8
  %4 = call noundef nonnull align 8 dereferenceable(8) ptr @_ZSt12__get_helperILm0EPN4llvm12MemoryAccessEJNS0_12ValueDeleterEEERKT0_RKSt11_Tuple_implIXT_EJS4_DpT1_EE(ptr noundef nonnull align 8 dereferenceable(8) %3) #2
  ret ptr %4
}

; Function Attrs: mustprogress nounwind uwtable
define linkonce_odr hidden noundef ptr @_ZNKSt15__uniq_ptr_implIN4llvm12MemoryAccessENS0_12ValueDeleterEE6_M_ptrEv(ptr noundef nonnull align 8 dereferenceable(8) %0) #1 comdat align 2 {
  %2 = alloca ptr, align 8
  store ptr %0, ptr %2, align 8
  %3 = load ptr, ptr %2, align 8
  %4 = getelementptr inbounds nuw %"class.std::__uniq_ptr_impl", ptr %3, i32 0, i32 0
  %5 = call noundef nonnull align 8 dereferenceable(8) ptr @_ZSt3getILm0EJPN4llvm12MemoryAccessENS0_12ValueDeleterEEERKNSt13tuple_elementIXT_ESt5tupleIJDpT0_EEE4typeERKS8_(ptr noundef nonnull align 8 dereferenceable(8) %4) #2
  %6 = load ptr, ptr %5, align 8
  ret ptr %6
}

; Function Attrs: mustprogress nounwind uwtable
define linkonce_odr hidden noundef ptr @_ZNKSt10unique_ptrIN4llvm12MemoryAccessENS0_12ValueDeleterEE3getEv(ptr noundef nonnull align 8 dereferenceable(8) %0) #1 comdat align 2 {
  %2 = alloca ptr, align 8
  store ptr %0, ptr %2, align 8
  %3 = load ptr, ptr %2, align 8
  %4 = getelementptr inbounds nuw %"class.std::unique_ptr", ptr %3, i32 0, i32 0
  %5 = call noundef ptr @_ZNKSt15__uniq_ptr_implIN4llvm12MemoryAccessENS0_12ValueDeleterEE6_M_ptrEv(ptr noundef nonnull align 8 dereferenceable(8) %4) #2
  ret ptr %5
}

; Function Attrs: mustprogress nounwind uwtable
define internal void @_ZSt9__advanceIPN12_GLOBAL__N_113ClobberWalker14TerminatedPathElEvRT_T0_St26random_access_iterator_tag(ptr noundef nonnull align 8 dereferenceable(8) %0, i64 noundef %1) #1 {
  %3 = alloca ptr, align 8
  %4 = alloca i64, align 8
  store ptr %0, ptr %3, align 8
  store i64 %1, ptr %4, align 8
  %5 = load i64, ptr %4, align 8
  %6 = call i1 @llvm.is.constant.i64(i64 %5)
  br i1 %6, label %7, label %14

7:                                                ; preds = %2
  %8 = load i64, ptr %4, align 8
  %9 = icmp eq i64 %8, 1
  br i1 %9, label %10, label %14

10:                                               ; preds = %7
  %11 = load ptr, ptr %3, align 8
  %12 = load ptr, ptr %11, align 8
  %13 = getelementptr inbounds %"struct.(anonymous namespace)::ClobberWalker::TerminatedPath", ptr %12, i32 1
  store ptr %13, ptr %11, align 8
  br label %30

14:                                               ; preds = %7, %2
  %15 = load i64, ptr %4, align 8
  %16 = call i1 @llvm.is.constant.i64(i64 %15)
  br i1 %16, label %17, label %24

17:                                               ; preds = %14
  %18 = load i64, ptr %4, align 8
  %19 = icmp eq i64 %18, -1
  br i1 %19, label %20, label %24

20:                                               ; preds = %17
  %21 = load ptr, ptr %3, align 8
  %22 = load ptr, ptr %21, align 8
  %23 = getelementptr inbounds %"struct.(anonymous namespace)::ClobberWalker::TerminatedPath", ptr %22, i32 -1
  store ptr %23, ptr %21, align 8
  br label %29

24:                                               ; preds = %17, %14
  %25 = load i64, ptr %4, align 8
  %26 = load ptr, ptr %3, align 8
  %27 = load ptr, ptr %26, align 8
  %28 = getelementptr inbounds %"struct.(anonymous namespace)::ClobberWalker::TerminatedPath", ptr %27, i64 %25
  store ptr %28, ptr %26, align 8
  br label %29

29:                                               ; preds = %24, %20
  br label %30

30:                                               ; preds = %29, %10
  ret void
}

; Function Attrs: mustprogress nounwind uwtable
define internal void @_ZSt19__iterator_categoryIPN12_GLOBAL__N_113ClobberWalker14TerminatedPathEENSt15iterator_traitsIT_E17iterator_categoryERKS5_(ptr noundef nonnull align 8 dereferenceable(8) %0) #1 {
  %2 = alloca ptr, align 8
  store ptr %0, ptr %2, align 8
  ret void
}

; Function Attrs: mustprogress nounwind uwtable
define internal void @_ZSt4swapIN12_GLOBAL__N_113ClobberWalker14TerminatedPathEENSt9enable_ifIXsr6__and_ISt6__not_ISt15__is_tuple_likeIT_EESt21is_move_constructibleIS6_ESt18is_move_assignableIS6_EEE5valueEvE4typeERS6_SF_(ptr noundef nonnull align 8 dereferenceable(16) %0, ptr noundef nonnull align 8 dereferenceable(16) %1) #1 {
  %3 = alloca ptr, align 8
  %4 = alloca ptr, align 8
  %5 = alloca %"struct.(anonymous namespace)::ClobberWalker::TerminatedPath", align 8
  store ptr %0, ptr %3, align 8
  store ptr %1, ptr %4, align 8
  %6 = load ptr, ptr %3, align 8
  call void @llvm.memcpy.p0.p0.i64(ptr align 8 %5, ptr align 8 %6, i64 16, i1 false)
  %7 = load ptr, ptr %4, align 8
  %8 = load ptr, ptr %3, align 8
  call void @llvm.memcpy.p0.p0.i64(ptr align 8 %8, ptr align 8 %7, i64 16, i1 false)
  %9 = load ptr, ptr %4, align 8
  call void @llvm.memcpy.p0.p0.i64(ptr align 8 %9, ptr align 8 %5, i64 16, i1 false)
  ret void
}

; Function Attrs: mustprogress nounwind uwtable
define linkonce_odr hidden noundef ptr @_ZNK4llvm12MemoryAccess8getBlockEv(ptr noundef nonnull align 8 dereferenceable(72) %0) #1 comdat align 2 {
  %2 = alloca ptr, align 8
  store ptr %0, ptr %2, align 8
  %3 = load ptr, ptr %2, align 8
  %4 = getelementptr inbounds nuw %"class.llvm::MemoryAccess", ptr %3, i32 0, i32 3
  %5 = load ptr, ptr %4, align 8
  ret ptr %5
}

; Function Attrs: mustprogress nounwind uwtable
define linkonce_odr hidden noundef zeroext i1 @_ZNK4llvm9MemorySSA16isLiveOnEntryDefEPKNS_12MemoryAccessE(ptr noundef nonnull align 8 dereferenceable(325) %0, ptr noundef %1) #1 comdat align 2 {
  %3 = alloca ptr, align 8
  %4 = alloca ptr, align 8
  store ptr %0, ptr %3, align 8
  store ptr %1, ptr %4, align 8
  %5 = load ptr, ptr %3, align 8
  %6 = load ptr, ptr %4, align 8
  %7 = getelementptr inbounds nuw %"class.llvm::MemorySSA", ptr %5, i32 0, i32 7
  %8 = call noundef ptr @_ZNKSt10unique_ptrIN4llvm12MemoryAccessENS0_12ValueDeleterEE3getEv(ptr noundef nonnull align 8 dereferenceable(8) %7) #2
  %9 = icmp eq ptr %6, %8
  ret i1 %9
}

; Function Attrs: mustprogress nounwind uwtable
define internal void @_ZSt7advanceIPN12_GLOBAL__N_113ClobberWalker14TerminatedPathElEvRT_T0_(ptr noundef nonnull align 8 dereferenceable(8) %0, i64 noundef %1) #1 {
  %3 = alloca ptr, align 8
  %4 = alloca i64, align 8
  %5 = alloca i64, align 8
  store ptr %0, ptr %3, align 8
  store i64 %1, ptr %4, align 8
  %6 = load i64, ptr %4, align 8
  store i64 %6, ptr %5, align 8
  %7 = load ptr, ptr %3, align 8
  %8 = load i64, ptr %5, align 8
  %9 = load ptr, ptr %3, align 8
  call void @_ZSt19__iterator_categoryIPN12_GLOBAL__N_113ClobberWalker14TerminatedPathEENSt15iterator_traitsIT_E17iterator_categoryERKS5_(ptr noundef nonnull align 8 dereferenceable(8) %9)
  call void @_ZSt9__advanceIPN12_GLOBAL__N_113ClobberWalker14TerminatedPathElEvRT_T0_St26random_access_iterator_tag(ptr noundef nonnull align 8 dereferenceable(8) %7, i64 noundef %8)
  ret void
}

; Function Attrs: mustprogress nounwind uwtable
define internal void @_ZSt9iter_swapIPN12_GLOBAL__N_113ClobberWalker14TerminatedPathES3_EvT_T0_(ptr noundef %0, ptr noundef %1) #1 {
  %3 = alloca ptr, align 8
  %4 = alloca ptr, align 8
  store ptr %0, ptr %3, align 8
  store ptr %1, ptr %4, align 8
  %5 = load ptr, ptr %3, align 8
  %6 = load ptr, ptr %4, align 8
  call void @_ZSt4swapIN12_GLOBAL__N_113ClobberWalker14TerminatedPathEENSt9enable_ifIXsr6__and_ISt6__not_ISt15__is_tuple_likeIT_EESt21is_move_constructibleIS6_ESt18is_move_assignableIS6_EEE5valueEvE4typeERS6_SF_(ptr noundef nonnull align 8 dereferenceable(16) %5, ptr noundef nonnull align 8 dereferenceable(16) %6) #2
  ret void
}

; Function Attrs: mustprogress nounwind uwtable
define dso_local noundef zeroext i1 @_ZNK4llvm9MemorySSA9dominatesEPKNS_12MemoryAccessES3_(ptr noundef nonnull align 8 dereferenceable(325) %0, ptr noundef %1, ptr noundef %2) #1 align 2 {
  %4 = alloca i1, align 1
  %5 = alloca ptr, align 8
  %6 = alloca ptr, align 8
  %7 = alloca ptr, align 8
  store ptr %0, ptr %5, align 8
  store ptr %1, ptr %6, align 8
  store ptr %2, ptr %7, align 8
  %8 = load ptr, ptr %5, align 8
  %9 = load ptr, ptr %6, align 8
  %10 = load ptr, ptr %7, align 8
  %11 = icmp eq ptr %9, %10
  br i1 %11, label %12, label %13

12:                                               ; preds = %3
  store i1 true, ptr %4, align 1
  br label %35

13:                                               ; preds = %3
  %14 = load ptr, ptr %7, align 8
  %15 = call noundef zeroext i1 @_ZNK4llvm9MemorySSA16isLiveOnEntryDefEPKNS_12MemoryAccessE(ptr noundef nonnull align 8 dereferenceable(325) %8, ptr noundef %14)
  br i1 %15, label %16, label %17

16:                                               ; preds = %13
  store i1 false, ptr %4, align 1
  br label %35

17:                                               ; preds = %13
  %18 = load ptr, ptr %6, align 8
  %19 = call noundef ptr @_ZNK4llvm12MemoryAccess8getBlockEv(ptr noundef nonnull align 8 dereferenceable(72) %18)
  %20 = load ptr, ptr %7, align 8
  %21 = call noundef ptr @_ZNK4llvm12MemoryAccess8getBlockEv(ptr noundef nonnull align 8 dereferenceable(72) %20)
  %22 = icmp ne ptr %19, %21
  br i1 %22, label %23, label %31

23:                                               ; preds = %17
  %24 = getelementptr inbounds nuw %"class.llvm::MemorySSA", ptr %8, i32 0, i32 1
  %25 = load ptr, ptr %24, align 8
  %26 = load ptr, ptr %6, align 8
  %27 = call noundef ptr @_ZNK4llvm12MemoryAccess8getBlockEv(ptr noundef nonnull align 8 dereferenceable(72) %26)
  %28 = load ptr, ptr %7, align 8
  %29 = call noundef ptr @_ZNK4llvm12MemoryAccess8getBlockEv(ptr noundef nonnull align 8 dereferenceable(72) %28)
  %30 = call noundef zeroext i1 @_ZNK4llvm17DominatorTreeBaseINS_10BasicBlockELb0EE9dominatesEPKS1_S4_(ptr noundef nonnull align 8 dereferenceable(124) %25, ptr noundef %27, ptr noundef %29)
  store i1 %30, ptr %4, align 1
  br label %35

31:                                               ; preds = %17
  %32 = load ptr, ptr %6, align 8
  %33 = load ptr, ptr %7, align 8
  %34 = call noundef zeroext i1 @_ZNK4llvm9MemorySSA16locallyDominatesEPKNS_12MemoryAccessES3_(ptr noundef nonnull align 8 dereferenceable(325) %8, ptr noundef %32, ptr noundef %33)
  store i1 %34, ptr %4, align 1
  br label %35

35:                                               ; preds = %31, %23, %16, %12
  %36 = load i1, ptr %4, align 1
  ret i1 %36
}

; Function Attrs: mustprogress nounwind uwtable
define internal noundef ptr @_ZN4llvm25SmallVectorTemplateCommonIN12_GLOBAL__N_113ClobberWalker14TerminatedPathEvE3endEv(ptr noundef nonnull align 8 dereferenceable(16) %0) #1 align 2 {
  %2 = alloca ptr, align 8
  store ptr %0, ptr %2, align 8
  %3 = load ptr, ptr %2, align 8
  %4 = call noundef ptr @_ZN4llvm25SmallVectorTemplateCommonIN12_GLOBAL__N_113ClobberWalker14TerminatedPathEvE5beginEv(ptr noundef nonnull align 8 dereferenceable(16) %3)
  %5 = call noundef i64 @_ZNK4llvm15SmallVectorBaseIjE4sizeEv(ptr noundef nonnull align 8 dereferenceable(16) %3)
  %6 = getelementptr inbounds %"struct.(anonymous namespace)::ClobberWalker::TerminatedPath", ptr %4, i64 %5
  ret ptr %6
}

; Function Attrs: mustprogress nounwind uwtable
define internal noundef ptr @_ZSt4nextIPN12_GLOBAL__N_113ClobberWalker14TerminatedPathEET_S4_NSt15iterator_traitsIS4_E15difference_typeE(ptr noundef %0, i64 noundef %1) #1 {
  %3 = alloca ptr, align 8
  %4 = alloca i64, align 8
  store ptr %0, ptr %3, align 8
  store i64 %1, ptr %4, align 8
  %5 = load i64, ptr %4, align 8
  call void @_ZSt7advanceIPN12_GLOBAL__N_113ClobberWalker14TerminatedPathElEvRT_T0_(ptr noundef nonnull align 8 dereferenceable(8) %3, i64 noundef %5)
  %6 = load ptr, ptr %3, align 8
  ret ptr %6
}

; Function Attrs: mustprogress nounwind uwtable
define internal noundef ptr @_ZN4llvm25SmallVectorTemplateCommonIN12_GLOBAL__N_113ClobberWalker14TerminatedPathEvE5beginEv(ptr noundef nonnull align 8 dereferenceable(16) %0) #1 align 2 {
  %2 = alloca ptr, align 8
  store ptr %0, ptr %2, align 8
  %3 = load ptr, ptr %2, align 8
  %4 = getelementptr inbounds nuw %"class.llvm::SmallVectorBase", ptr %3, i32 0, i32 0
  %5 = load ptr, ptr %4, align 8
  ret ptr %5
}

; Function Attrs: mustprogress nounwind uwtable
define internal void @_ZZN12_GLOBAL__N_113ClobberWalker14tryOptimizePhiEPN4llvm9MemoryPhiEPNS1_12MemoryAccessERKNS1_14MemoryLocationEENKUlRNS1_15SmallVectorImplINS0_14TerminatedPathEEEE_clESC_(ptr noundef nonnull align 8 dereferenceable(8) %0, ptr noundef nonnull align 8 dereferenceable(16) %1) #1 align 2 {
  %3 = alloca ptr, align 8
  %4 = alloca ptr, align 8
  %5 = alloca ptr, align 8
  %6 = alloca ptr, align 8
  %7 = alloca ptr, align 8
  %8 = alloca ptr, align 8
  store ptr %0, ptr %3, align 8
  store ptr %1, ptr %4, align 8
  %9 = load ptr, ptr %3, align 8
  %10 = getelementptr inbounds nuw %class.anon.375, ptr %9, i32 0, i32 0
  %11 = load ptr, ptr %10, align 8
  %12 = load ptr, ptr %4, align 8
  %13 = call noundef ptr @_ZN4llvm25SmallVectorTemplateCommonIN12_GLOBAL__N_113ClobberWalker14TerminatedPathEvE5beginEv(ptr noundef nonnull align 8 dereferenceable(16) %12)
  store ptr %13, ptr %5, align 8
  %14 = load ptr, ptr %5, align 8
  %15 = call noundef ptr @_ZSt4nextIPN12_GLOBAL__N_113ClobberWalker14TerminatedPathEET_S4_NSt15iterator_traitsIS4_E15difference_typeE(ptr noundef %14, i64 noundef 1)
  store ptr %15, ptr %6, align 8
  %16 = load ptr, ptr %4, align 8
  %17 = call noundef ptr @_ZN4llvm25SmallVectorTemplateCommonIN12_GLOBAL__N_113ClobberWalker14TerminatedPathEvE3endEv(ptr noundef nonnull align 8 dereferenceable(16) %16)
  store ptr %17, ptr %7, align 8
  br label %18

18:                                               ; preds = %35, %2
  %19 = load ptr, ptr %6, align 8
  %20 = load ptr, ptr %7, align 8
  %21 = icmp ne ptr %19, %20
  br i1 %21, label %22, label %38

22:                                               ; preds = %18
  %23 = getelementptr inbounds nuw %"class.(anonymous namespace)::ClobberWalker", ptr %11, i32 0, i32 0
  %24 = load ptr, ptr %23, align 8
  %25 = load ptr, ptr %6, align 8
  %26 = getelementptr inbounds nuw %"struct.(anonymous namespace)::ClobberWalker::TerminatedPath", ptr %25, i32 0, i32 0
  %27 = load ptr, ptr %26, align 8
  %28 = load ptr, ptr %5, align 8
  %29 = getelementptr inbounds nuw %"struct.(anonymous namespace)::ClobberWalker::TerminatedPath", ptr %28, i32 0, i32 0
  %30 = load ptr, ptr %29, align 8
  %31 = call noundef zeroext i1 @_ZNK4llvm9MemorySSA9dominatesEPKNS_12MemoryAccessES3_(ptr noundef nonnull align 8 dereferenceable(325) %24, ptr noundef %27, ptr noundef %30)
  br i1 %31, label %34, label %32

32:                                               ; preds = %22
  %33 = load ptr, ptr %6, align 8
  store ptr %33, ptr %5, align 8
  br label %34

34:                                               ; preds = %32, %22
  br label %35

35:                                               ; preds = %34
  %36 = load ptr, ptr %6, align 8
  %37 = getelementptr inbounds %"struct.(anonymous namespace)::ClobberWalker::TerminatedPath", ptr %36, i32 1
  store ptr %37, ptr %6, align 8
  br label %18, !llvm.loop !49

38:                                               ; preds = %18
  %39 = load ptr, ptr %4, align 8
  %40 = call noundef ptr @_ZN4llvm25SmallVectorTemplateCommonIN12_GLOBAL__N_113ClobberWalker14TerminatedPathEvE3endEv(ptr noundef nonnull align 8 dereferenceable(16) %39)
  %41 = getelementptr inbounds %"struct.(anonymous namespace)::ClobberWalker::TerminatedPath", ptr %40, i64 -1
  store ptr %41, ptr %8, align 8
  %42 = load ptr, ptr %8, align 8
  %43 = load ptr, ptr %5, align 8
  %44 = icmp ne ptr %42, %43
  br i1 %44, label %45, label %48

45:                                               ; preds = %38
  %46 = load ptr, ptr %8, align 8
  %47 = load ptr, ptr %5, align 8
  call void @_ZSt9iter_swapIPN12_GLOBAL__N_113ClobberWalker14TerminatedPathES3_EvT_T0_(ptr noundef %46, ptr noundef %47)
  br label %48

48:                                               ; preds = %45, %38
  ret void
}