; Function Attrs: mustprogress nounwind uwtable
define internal fastcc void @_ZZN12_GLOBAL__N_113ClobberWalker14tryOptimizePhiEPN4llvm9MemoryPhiEPNS1_12MemoryAccessERKNS1_14MemoryLocationEENKUlRNS1_15SmallVectorImplINS0_14TerminatedPathEEEE_clESC_(ptr nocapture readonly %.0.val, ptr noundef nonnull align 8 dereferenceable(16) %0) unnamed_addr #0 align 2 {
  %2 = alloca %"struct.(anonymous namespace)::ClobberWalker::TerminatedPath", align 8
  %.val = load ptr, ptr %0, align 8
  %3 = tail call noundef i64 @_ZNK4llvm15SmallVectorBaseIjE4sizeEv(ptr noundef nonnull align 8 dereferenceable(16) %0) #25
  %.idx = shl nsw i64 %3, 4
  %4 = getelementptr inbounds i8, ptr %.val, i64 %.idx
  %.not5 = icmp eq i64 %3, 1
  br i1 %.not5, label %._crit_edge, label %.lr.ph.preheader

.lr.ph.preheader:                                 ; preds = %1
  %.0154 = getelementptr inbounds i8, ptr %.val, i64 16
  br label %.lr.ph

.lr.ph:                                           ; preds = %.lr.ph.preheader, %_ZNK4llvm9MemorySSA9dominatesEPKNS_12MemoryAccessES3_.exit.thread2
  %.0157 = phi ptr [ %.015, %_ZNK4llvm9MemorySSA9dominatesEPKNS_12MemoryAccessES3_.exit.thread2 ], [ %.0154, %.lr.ph.preheader ]
  %.06 = phi ptr [ %23, %_ZNK4llvm9MemorySSA9dominatesEPKNS_12MemoryAccessES3_.exit.thread2 ], [ %.val, %.lr.ph.preheader ]
  %5 = load ptr, ptr %.0.val, align 8
  %6 = load ptr, ptr %.0157, align 8
  %7 = load ptr, ptr %.06, align 8
  %8 = icmp eq ptr %6, %7
  br i1 %8, label %_ZNK4llvm9MemorySSA9dominatesEPKNS_12MemoryAccessES3_.exit.thread, label %9

9:                                                ; preds = %.lr.ph
  %10 = getelementptr inbounds nuw i8, ptr %5, i64 104
  %11 = load ptr, ptr %10, align 8
  %12 = icmp eq ptr %7, %11
  br i1 %12, label %_ZNK4llvm9MemorySSA9dominatesEPKNS_12MemoryAccessES3_.exit.thread2, label %13

13:                                               ; preds = %9
  %14 = getelementptr inbounds nuw i8, ptr %6, i64 64
  %15 = load ptr, ptr %14, align 8
  %16 = getelementptr inbounds nuw i8, ptr %7, i64 64
  %17 = load ptr, ptr %16, align 8
  %.not.i = icmp eq ptr %15, %17
  br i1 %.not.i, label %_ZNK4llvm9MemorySSA9dominatesEPKNS_12MemoryAccessES3_.exit, label %18

18:                                               ; preds = %13
  %19 = getelementptr inbounds nuw i8, ptr %5, i64 8
  %20 = load ptr, ptr %19, align 8
  %21 = tail call noundef zeroext i1 @_ZNK4llvm17DominatorTreeBaseINS_10BasicBlockELb0EE9dominatesEPKS1_S4_(ptr noundef nonnull align 8 dereferenceable(124) %20, ptr noundef %15, ptr noundef %17) #25
  br i1 %21, label %_ZNK4llvm9MemorySSA9dominatesEPKNS_12MemoryAccessES3_.exit.thread, label %_ZNK4llvm9MemorySSA9dominatesEPKNS_12MemoryAccessES3_.exit.thread2

_ZNK4llvm9MemorySSA9dominatesEPKNS_12MemoryAccessES3_.exit: ; preds = %13
  %22 = tail call noundef zeroext i1 @_ZNK4llvm9MemorySSA16locallyDominatesEPKNS_12MemoryAccessES3_(ptr noundef nonnull align 8 dereferenceable(325) %5, ptr noundef nonnull %6, ptr noundef nonnull %7)
  br i1 %22, label %_ZNK4llvm9MemorySSA9dominatesEPKNS_12MemoryAccessES3_.exit.thread, label %_ZNK4llvm9MemorySSA9dominatesEPKNS_12MemoryAccessES3_.exit.thread2

_ZNK4llvm9MemorySSA9dominatesEPKNS_12MemoryAccessES3_.exit.thread: ; preds = %.lr.ph, %18, %_ZNK4llvm9MemorySSA9dominatesEPKNS_12MemoryAccessES3_.exit
  br label %_ZNK4llvm9MemorySSA9dominatesEPKNS_12MemoryAccessES3_.exit.thread2

_ZNK4llvm9MemorySSA9dominatesEPKNS_12MemoryAccessES3_.exit.thread2: ; preds = %9, %18, %_ZNK4llvm9MemorySSA9dominatesEPKNS_12MemoryAccessES3_.exit, %_ZNK4llvm9MemorySSA9dominatesEPKNS_12MemoryAccessES3_.exit.thread
  %23 = phi ptr [ %.06, %_ZNK4llvm9MemorySSA9dominatesEPKNS_12MemoryAccessES3_.exit.thread ], [ %.0157, %_ZNK4llvm9MemorySSA9dominatesEPKNS_12MemoryAccessES3_.exit ], [ %.0157, %18 ], [ %.0157, %9 ]
  %.015 = getelementptr inbounds i8, ptr %.0157, i64 16
  %.not = icmp eq ptr %.015, %4
  br i1 %.not, label %._crit_edge, label %.lr.ph, !llvm.loop !252

._crit_edge:                                      ; preds = %_ZNK4llvm9MemorySSA9dominatesEPKNS_12MemoryAccessES3_.exit.thread2, %1
  %.0.lcssa = phi ptr [ %.val, %1 ], [ %23, %_ZNK4llvm9MemorySSA9dominatesEPKNS_12MemoryAccessES3_.exit.thread2 ]
  %.val.i18 = load ptr, ptr %0, align 8
  %24 = tail call noundef i64 @_ZNK4llvm15SmallVectorBaseIjE4sizeEv(ptr noundef nonnull align 8 dereferenceable(16) %0) #25
  %25 = getelementptr inbounds %"struct.(anonymous namespace)::ClobberWalker::TerminatedPath", ptr %.val.i18, i64 %24
  %26 = getelementptr inbounds i8, ptr %25, i64 -16
  %.not17 = icmp eq ptr %26, %.0.lcssa
  br i1 %.not17, label %28, label %27

27:                                               ; preds = %._crit_edge
  call void @llvm.lifetime.start.p0(i64 16, ptr nonnull %2)
  call void @llvm.memcpy.p0.p0.i64(ptr noundef nonnull align 8 dereferenceable(16) %2, ptr noundef nonnull align 8 dereferenceable(16) %26, i64 16, i1 false)
  tail call void @llvm.memcpy.p0.p0.i64(ptr noundef nonnull align 8 dereferenceable(16) %26, ptr noundef nonnull align 8 dereferenceable(16) %.0.lcssa, i64 16, i1 false)
  call void @llvm.memcpy.p0.p0.i64(ptr noundef nonnull align 8 dereferenceable(16) %.0.lcssa, ptr noundef nonnull align 8 dereferenceable(16) %2, i64 16, i1 false)
  call void @llvm.lifetime.end.p0(i64 16, ptr nonnull %2)
  br label %28

28:                                               ; preds = %27, %._crit_edge
  ret void
}